; Function Attrs: mustprogress nounwind uwtable
define internal void @_ZN4node9inspector12_GLOBAL__N_120JSBindingsConnectionINS1_20MainThreadConnectionEE25JSBindingsSessionDelegateD0Ev(ptr noundef nonnull align 8 dereferenceable(24) %this) unnamed_addr #3 align 2 {
entry:
  store ptr getelementptr inbounds ({ [5 x ptr] }, ptr @_ZTVN4node9inspector12_GLOBAL__N_120JSBindingsConnectionINS1_20MainThreadConnectionEE25JSBindingsSessionDelegateE, i64 0, i32 0, i64 2), ptr %this, align 8
  %connection_.i = getelementptr inbounds i8, ptr %this, i64 16
  %connection_.val.i = load ptr, ptr %connection_.i, align 8
  %cmp.not.i.i = icmp eq ptr %connection_.val.i, null
  br i1 %cmp.not.i.i, label %_ZN4node9inspector12_GLOBAL__N_120JSBindingsConnectionINS1_20MainThreadConnectionEE25JSBindingsSessionDelegateD2Ev.exit, label %if.then.i.i

if.then.i.i:                                      ; preds = %entry
  tail call void @_ZN4node10BaseObject17decrease_refcountEv(ptr noundef nonnull align 8 dereferenceable(32) %connection_.val.i) #21
  br label %_ZN4node9inspector12_GLOBAL__N_120JSBindingsConnectionINS1_20MainThreadConnectionEE25JSBindingsSessionDelegateD2Ev.exit

_ZN4node9inspector12_GLOBAL__N_120JSBindingsConnectionINS1_20MainThreadConnectionEE25JSBindingsSessionDelegateD2Ev.exit: ; preds = %entry, %if.then.i.i
  tail call void @_ZdlPv(ptr noundef nonnull %this) #20
  ret void
}